; Function Attrs: nofree nounwind uwtable
define void @Aig_TableProfile(ptr noundef readonly captures(none) %0) local_unnamed_addr #5 {
  %2 = getelementptr inbounds nuw i8, ptr %0, i64 168
  %3 = load i32, ptr %2, align 8
  %4 = getelementptr i8, ptr %0, i64 148
  %.val = load i32, ptr %4, align 4
  %5 = getelementptr i8, ptr %0, i64 152
  %.val14 = load i32, ptr %5, align 8
  %6 = add nsw i32 %.val14, %.val
  %7 = tail call i32 (ptr, ...) @printf(ptr noundef nonnull dereferenceable(1) @.str, i32 noundef %3, i32 noundef %6)
  %8 = load i32, ptr %2, align 8
  %9 = icmp sgt i32 %8, 0
  br i1 %9, label %.lr.ph, label %._crit_edge

.lr.ph:                                           ; preds = %1
  %10 = getelementptr inbounds nuw i8, ptr %0, i64 160
  br label %11

11:                                               ; preds = %.lr.ph, %20
  %12 = phi i32 [ %8, %.lr.ph ], [ %21, %20 ]
  %indvars.iv = phi i64 [ 0, %.lr.ph ], [ %indvars.iv.next, %20 ]
  %13 = load ptr, ptr %10, align 8
  %14 = getelementptr inbounds nuw ptr, ptr %13, i64 %indvars.iv
  br label %15

15:                                               ; preds = %15, %11
  %.012.in = phi ptr [ %14, %11 ], [ %.012, %15 ]
  %.0 = phi i32 [ 0, %11 ], [ %16, %15 ]
  %.012 = load ptr, ptr %.012.in, align 8
  %.not = icmp eq ptr %.012, null
  %16 = add nuw nsw i32 %.0, 1
  br i1 %.not, label %17, label %15, !llvm.loop !13

17:                                               ; preds = %15
  %.not13 = icmp eq i32 %.0, 0
  br i1 %.not13, label %20, label %18

18:                                               ; preds = %17
  %19 = tail call i32 (ptr, ...) @printf(ptr noundef nonnull dereferenceable(1) @.str.1, i32 noundef %.0)
  %.pre = load i32, ptr %2, align 8
  br label %20

20:                                               ; preds = %17, %18
  %21 = phi i32 [ %12, %17 ], [ %.pre, %18 ]
  %indvars.iv.next = add nuw nsw i64 %indvars.iv, 1
  %22 = sext i32 %21 to i64
  %23 = icmp slt i64 %indvars.iv.next, %22
  br i1 %23, label %11, label %._crit_edge, !llvm.loop !14

._crit_edge:                                      ; preds = %20, %1
  ret void
}